ccopy_reg
_reconstructor
p0
(cPhysicsTools.HeppyCore.statistics.counter
Counter
p1
c__builtin__
list
p2
(lp3
(lp4
S'all events'
p5
aI297135
aa(lp6
S'has >=1 tau at preselection'
p7
aI297035
aa(lp8
S'has >=1 selected taus'
p9
aI27394
aa(lp10
S'has >=1 other taus'
p11
aI296997
aatp12
Rp13
(dp14
S'name'
p15
S'events'
p16
sS'dico'
p17
(dp18
g9
I2
sg5
I0
sg11
I3
sg7
I1
ssb.