ccopy_reg
_reconstructor
p0
(cPhysicsTools.HeppyCore.framework.config
MCComponent
p1
c__builtin__
object
p2
Ntp3
Rp4
(dp5
S'files'
p6
(lp7
S'root://eoscms.cern.ch//eos/cms/store/mc/RunIISpring15DR74/ttHJetToNonbb_M125_13TeV_amcatnloFXFX_madspin_pythia8/MINIAODSIM/Asympt25ns_MCRUN2_74_V9-v2/00000/18B642FE-F112-E511-937B-003048D334C7.root'
p8
aS'root://eoscms.cern.ch//eos/cms/store/mc/RunIISpring15DR74/ttHJetToNonbb_M125_13TeV_amcatnloFXFX_madspin_pythia8/MINIAODSIM/Asympt25ns_MCRUN2_74_V9-v2/00000/22F65FBE-F212-E511-A106-002590D9D8B2.root'
p9
asS'isEmbed'
p10
I00
sS'tree_name'
p11
NsS'name'
p12
S'TTHnobb_Chunk0'
p13
sS'isData'
p14
I00
sS'puFileData'
p15
S'$CMSSW_BASE/src/CMGTools/TTHAnalysis/data/puProfile_Data12.root'
p16
sS'intLumi'
p17
F1.0
sS'splitFactor'
p18
I28
sS'effCorrFactor'
p19
I1
sS'addWeight'
p20
F1.0
sS'xSection'
p21
F0.2150955
sS'dataset_entries'
p22
I1561760
sS'dataset'
p23
S'/ttHJetToNonbb_M125_13TeV_amcatnloFXFX_madspin_pythia8/RunIISpring15DR74-Asympt25ns_MCRUN2_74_V9-v2/MINIAODSIM'
p24
sS'efficiency'
p25
g0
(cCMGTools.RootTools.fwlite.Config
CFG
p26
g2
Ntp27
Rp28
(dp29
S'eleFile'
p30
S'data/eff_ele12.root'
p31
sS'muonFile'
p32
S'data/eff_mu12.root'
p33
sS'muonHisto'
p34
S'TH2D_ALL_2012'
p35
sg12
S'eff'
p36
sS'eleHisto'
p37
S'h_electronScaleFactor_RecoIdIsoSip'
p38
sbsS'isMC'
p39
I01
sS'nGenEvents'
p40
I1
sS'puFileMC'
p41
S'$CMSSW_BASE/src/CMGTools/TTHAnalysis/data/puProfile_Summer12_53X.root'
p42
sS'triggers'
p43
(lp44
sb.